; Function Attrs: mustprogress uwtable
define internal void @_ZNK5faiss12_GLOBAL__N_118IVFBinaryScannerL2INS_17HammingComputer32EE16scan_codes_rangeEmPKhPKliRNS_16RangeQueryResultE(ptr nocapture noundef nonnull readonly align 8 dereferenceable(64) %0, i64 noundef %1, ptr noalias nocapture noundef readonly %2, ptr noalias nocapture noundef readonly %3, i32 noundef %4, ptr noundef nonnull align 8 dereferenceable(24) %5) unnamed_addr #1 align 2 {
  %.not18 = icmp eq i64 %1, 0
  br i1 %.not18, label %._crit_edge, label %.lr.ph

.lr.ph:                                           ; preds = %6
  %7 = getelementptr inbounds i8, ptr %0, i64 8
  %8 = getelementptr inbounds i8, ptr %0, i64 48
  %9 = getelementptr inbounds i8, ptr %0, i64 56
  %10 = getelementptr inbounds i8, ptr %0, i64 40
  br label %11

11:                                               ; preds = %.lr.ph, %32
  %.017 = phi ptr [ %2, %.lr.ph ], [ %34, %32 ]
  %.01315 = phi i64 [ 0, %.lr.ph ], [ %35, %32 ]
  %12 = load <4 x i64>, ptr %.017, align 8
  %13 = load <4 x i64>, ptr %7, align 8
  %14 = xor <4 x i64> %13, %12
  %15 = tail call <4 x i64> @llvm.ctpop.v4i64(<4 x i64> %14), !range !210
  %16 = tail call i64 @llvm.vector.reduce.add.v4i64(<4 x i64> %15)
  %17 = trunc i64 %16 to i32
  %18 = icmp ult i32 %17, %4
  br i1 %18, label %19, label %32

19:                                               ; preds = %11
  %20 = load i8, ptr %8, align 8
  %21 = and i8 %20, 1
  %.not = icmp eq i8 %21, 0
  br i1 %.not, label %26, label %22

22:                                               ; preds = %19
  %23 = load i64, ptr %9, align 8
  %24 = shl i64 %23, 32
  %25 = or i64 %24, %.01315
  br label %29

26:                                               ; preds = %19
  %27 = getelementptr inbounds i64, ptr %3, i64 %.01315
  %28 = load i64, ptr %27, align 8
  br label %29

29:                                               ; preds = %26, %22
  %30 = phi i64 [ %25, %22 ], [ %28, %26 ]
  %31 = uitofp i32 %17 to float
  tail call void @_ZN5faiss16RangeQueryResult3addEfl(ptr noundef nonnull align 8 dereferenceable(24) %5, float noundef %31, i64 noundef %30)
  br label %32

32:                                               ; preds = %29, %11
  %33 = load i64, ptr %10, align 8
  %34 = getelementptr inbounds i8, ptr %.017, i64 %33
  %35 = add nuw i64 %.01315, 1
  %exitcond.not = icmp eq i64 %35, %1
  br i1 %exitcond.not, label %._crit_edge, label %11, !llvm.loop !218

._crit_edge:                                      ; preds = %32, %6
  ret void
}